; Function Attrs: nounwind uwtable
define noalias noundef ptr @Pdr_ManCollectCubes(ptr noundef readonly captures(none) %0, i32 noundef %1) local_unnamed_addr #0 {
  %3 = tail call noalias dereferenceable_or_null(16) ptr @malloc(i64 noundef 16) #20
  %4 = getelementptr inbounds nuw i8, ptr %3, i64 4
  store i32 0, ptr %4, align 4
  store i32 100, ptr %3, align 8
  %5 = tail call noalias dereferenceable_or_null(800) ptr @malloc(i64 noundef 800) #20
  %6 = getelementptr inbounds nuw i8, ptr %3, i64 8
  store ptr %5, ptr %6, align 8
  %7 = getelementptr inbounds nuw i8, ptr %0, i64 112
  %8 = load ptr, ptr %7, align 8
  %9 = getelementptr i8, ptr %8, i64 4
  %.val1621 = load i32, ptr %9, align 4
  %10 = icmp slt i32 %1, %.val1621
  br i1 %10, label %.lr.ph23.preheader, label %.critedge

.lr.ph23.preheader:                               ; preds = %2
  %11 = sext i32 %1 to i64
  br label %.lr.ph23

.lr.ph23:                                         ; preds = %.lr.ph23.preheader, %.critedge2
  %12 = phi ptr [ %8, %.lr.ph23.preheader ], [ %51, %.critedge2 ]
  %indvars.iv25 = phi i64 [ %11, %.lr.ph23.preheader ], [ %indvars.iv.next26, %.critedge2 ]
  %13 = getelementptr i8, ptr %12, i64 8
  %.val17 = load ptr, ptr %13, align 8
  %14 = getelementptr inbounds ptr, ptr %.val17, i64 %indvars.iv25
  %15 = load ptr, ptr %14, align 8
  %16 = getelementptr i8, ptr %15, i64 4
  %.val19 = load i32, ptr %16, align 4
  %17 = icmp sgt i32 %.val19, 0
  br i1 %17, label %.lr.ph, label %.critedge2

.lr.ph:                                           ; preds = %.lr.ph23
  %18 = getelementptr i8, ptr %15, i64 8
  br label %19

19:                                               ; preds = %.lr.ph, %Vec_PtrPush.exit
  %indvars.iv = phi i64 [ 0, %.lr.ph ], [ %indvars.iv.next, %Vec_PtrPush.exit ]
  %.val18 = load ptr, ptr %18, align 8
  %20 = getelementptr inbounds nuw ptr, ptr %.val18, i64 %indvars.iv
  %21 = load ptr, ptr %20, align 8
  %22 = load i32, ptr %4, align 4
  %23 = load i32, ptr %3, align 8
  %24 = icmp eq i32 %22, %23
  br i1 %24, label %25, label %.Vec_PtrGrow.exit11_crit_edge.i

.Vec_PtrGrow.exit11_crit_edge.i:                  ; preds = %19
  %.pre.i = load ptr, ptr %6, align 8
  br label %Vec_PtrPush.exit

25:                                               ; preds = %19
  %26 = icmp slt i32 %22, 16
  br i1 %26, label %27, label %34

27:                                               ; preds = %25
  %28 = load ptr, ptr %6, align 8
  %.not9.i.i = icmp eq ptr %28, null
  br i1 %.not9.i.i, label %31, label %29

29:                                               ; preds = %27
  %30 = tail call dereferenceable_or_null(128) ptr @realloc(ptr noundef nonnull %28, i64 noundef 128) #21
  br label %Vec_PtrGrow.exit.i

31:                                               ; preds = %27
  %32 = tail call noalias dereferenceable_or_null(128) ptr @malloc(i64 noundef 128) #20
  br label %Vec_PtrGrow.exit.i

Vec_PtrGrow.exit.i:                               ; preds = %31, %29
  %33 = phi ptr [ %30, %29 ], [ %32, %31 ]
  store ptr %33, ptr %6, align 8
  store i32 16, ptr %3, align 8
  br label %Vec_PtrPush.exit

34:                                               ; preds = %25
  %35 = shl nuw nsw i32 %22, 1
  %36 = load ptr, ptr %6, align 8
  %.not9.i10.i = icmp eq ptr %36, null
  %37 = zext nneg i32 %35 to i64
  %38 = shl nuw nsw i64 %37, 3
  br i1 %.not9.i10.i, label %41, label %39

39:                                               ; preds = %34
  %40 = tail call ptr @realloc(ptr noundef nonnull %36, i64 noundef %38) #21
  br label %43

41:                                               ; preds = %34
  %42 = tail call noalias ptr @malloc(i64 noundef %38) #20
  br label %43

43:                                               ; preds = %41, %39
  %44 = phi ptr [ %40, %39 ], [ %42, %41 ]
  store ptr %44, ptr %6, align 8
  store i32 %35, ptr %3, align 8
  br label %Vec_PtrPush.exit

Vec_PtrPush.exit:                                 ; preds = %.Vec_PtrGrow.exit11_crit_edge.i, %Vec_PtrGrow.exit.i, %43
  %45 = phi ptr [ %.pre.i, %.Vec_PtrGrow.exit11_crit_edge.i ], [ %44, %43 ], [ %33, %Vec_PtrGrow.exit.i ]
  %46 = add nsw i32 %22, 1
  store i32 %46, ptr %4, align 4
  %47 = sext i32 %22 to i64
  %48 = getelementptr inbounds ptr, ptr %45, i64 %47
  store ptr %21, ptr %48, align 8
  %indvars.iv.next = add nuw nsw i64 %indvars.iv, 1
  %.val = load i32, ptr %16, align 4
  %49 = sext i32 %.val to i64
  %50 = icmp slt i64 %indvars.iv.next, %49
  br i1 %50, label %19, label %.critedge2.loopexit, !llvm.loop !13

.critedge2.loopexit:                              ; preds = %Vec_PtrPush.exit
  %.pre = load ptr, ptr %7, align 8
  br label %.critedge2

.critedge2:                                       ; preds = %.critedge2.loopexit, %.lr.ph23
  %51 = phi ptr [ %.pre, %.critedge2.loopexit ], [ %12, %.lr.ph23 ]
  %indvars.iv.next26 = add nsw i64 %indvars.iv25, 1
  %52 = getelementptr i8, ptr %51, i64 4
  %.val16 = load i32, ptr %52, align 4
  %53 = sext i32 %.val16 to i64
  %54 = icmp slt i64 %indvars.iv.next26, %53
  br i1 %54, label %.lr.ph23, label %.critedge, !llvm.loop !14

.critedge:                                        ; preds = %.critedge2, %2
  ret ptr %3
}